; Function Attrs: mustprogress nofree norecurse nosync nounwind willreturn memory(read, inaccessiblemem: none) uwtable
define dso_local noundef ptr @_ZNK7SRBRoot12getKeyStringEi(ptr noundef nonnull readonly align 8 captures(none) dereferenceable(176) %0, i32 noundef %1) local_unnamed_addr #19 align 2 {
  %3 = icmp slt i32 %1, 0
  %4 = getelementptr inbounds nuw i8, ptr %0, i64 32
  %5 = getelementptr inbounds nuw i8, ptr %0, i64 144
  %6 = load ptr, ptr %5, align 8
  %7 = getelementptr inbounds nuw i8, ptr %6, i64 16
  %8 = and i32 %1, 2147483647
  %.sink.in = select i1 %3, ptr %7, ptr %4
  %.sink = load ptr, ptr %.sink.in, align 8, !tbaa !141
  %9 = zext nneg i32 %8 to i64
  %10 = getelementptr inbounds nuw i8, ptr %.sink, i64 %9
  ret ptr %10
}